target datalayout = "e-m:e-p270:32:32-p271:32:32-p272:64:64-i64:64-i128:128-f80:128-n8:16:32:64-S128"
target triple = "x86_64-pc-linux-gnu"

%struct.edix = type { i32, ptr, ptr }
%struct.t_topology = type { ptr, %struct.t_idef, %struct.t_atoms, %struct.t_block, i8, %struct.t_symtab }
%struct.t_idef = type { i32, i32, ptr, ptr, float, ptr, ptr, [94 x %struct.t_ilist], i32 }
%struct.t_ilist = type { i32, ptr, i32 }
%struct.t_atoms = type { i32, ptr, ptr, ptr, ptr, i32, ptr, ptr, i8, i8, i8, i8, i8 }
%struct.t_block = type { i32, ptr, i32 }
%struct.t_symtab = type { i32, ptr }
%"class.std::filesystem::__cxx11::path" = type { %"class.std::__cxx11::basic_string", %"struct.std::filesystem::__cxx11::path::_List" }
%"class.std::__cxx11::basic_string" = type { %"struct.std::__cxx11::basic_string<char>::_Alloc_hider", i64, %union.anon.3 }
%"struct.std::__cxx11::basic_string<char>::_Alloc_hider" = type { ptr }
%union.anon.3 = type { i64, [8 x i8] }
%"struct.std::filesystem::__cxx11::path::_List" = type { %"class.std::unique_ptr" }
%"class.std::unique_ptr" = type { %"struct.std::__uniq_ptr_data" }
%"struct.std::__uniq_ptr_data" = type { %"class.std::__uniq_ptr_impl" }
%"class.std::__uniq_ptr_impl" = type { %"class.std::tuple" }
%"class.std::tuple" = type { %"struct.std::_Tuple_impl" }
%"struct.std::_Tuple_impl" = type { %"struct.std::_Head_base.5" }
%"struct.std::_Head_base.5" = type { ptr }

@.str.156 = private unnamed_addr constant [129 x i8] c"generated/home/dtcxzyw/WorkSpace/Projects/compilers/llvm-opt-benchmark/bench/gromacs/gromacs/src/gromacs/gmxana/gmx_make_edi.cpp\00", align 1
@.str.184 = private unnamed_addr constant [93 x i8] c"Select an index group of %d elements that corresponds to the atoms in the structure file %s\0A\00", align 1
@.str.185 = private unnamed_addr constant [59 x i8] c"You selected an index group with %d elements instead of %d\00", align 1
@.str.186 = private unnamed_addr constant [31 x i8] c"read coordnumber from file %s\0A\00", align 1
@.str.187 = private unnamed_addr constant [34 x i8] c"number of coordinates in file %d\0A\00", align 1
@.str.188 = private unnamed_addr constant [7 x i8] c"edx->x\00", align 1
@.str.189 = private unnamed_addr constant [10 x i8] c"edx->anrs\00", align 1

; Function Attrs: mustprogress uwtable
define internal void @_ZL13gmx_snew_implIiEvPKcS1_iRPT_m(ptr noundef %0, ptr noundef %1, i32 noundef %2, ptr noundef nonnull align 8 dereferenceable(8) %3, i64 noundef %4) #0 {
  %6 = alloca ptr, align 8
  %7 = alloca ptr, align 8
  %8 = alloca i32, align 4
  %9 = alloca ptr, align 8
  %10 = alloca i64, align 8
  store ptr %0, ptr %6, align 8
  store ptr %1, ptr %7, align 8
  store i32 %2, ptr %8, align 4
  store ptr %3, ptr %9, align 8
  store i64 %4, ptr %10, align 8
  %11 = load ptr, ptr %6, align 8
  %12 = load ptr, ptr %7, align 8
  %13 = load i32, ptr %8, align 4
  %14 = load i64, ptr %10, align 8
  %15 = call noundef ptr @_Z11save_callocPKcS0_imm(ptr noundef %11, ptr noundef %12, i32 noundef %13, i64 noundef %14, i64 noundef 4)
  %16 = load ptr, ptr %9, align 8
  store ptr %15, ptr %16, align 8
  ret void
}

; Function Attrs: mustprogress uwtable
define internal void @_ZL13gmx_snew_implIA3_fEvPKcS2_iRPT_m(ptr noundef %0, ptr noundef %1, i32 noundef %2, ptr noundef nonnull align 8 dereferenceable(8) %3, i64 noundef %4) #0 {
  %6 = alloca ptr, align 8
  %7 = alloca ptr, align 8
  %8 = alloca i32, align 4
  %9 = alloca ptr, align 8
  %10 = alloca i64, align 8
  store ptr %0, ptr %6, align 8
  store ptr %1, ptr %7, align 8
  store i32 %2, ptr %8, align 4
  store ptr %3, ptr %9, align 8
  store i64 %4, ptr %10, align 8
  %11 = load ptr, ptr %6, align 8
  %12 = load ptr, ptr %7, align 8
  %13 = load i32, ptr %8, align 4
  %14 = load i64, ptr %10, align 8
  %15 = call noundef ptr @_Z11save_callocPKcS0_imm(ptr noundef %11, ptr noundef %12, i32 noundef %13, i64 noundef %14, i64 noundef 12)
  %16 = load ptr, ptr %9, align 8
  store ptr %15, ptr %16, align 8
  ret void
}

; Function Attrs: mustprogress uwtable
define internal void @_ZL8init_edxP4edix(ptr noundef %0) #0 {
  %2 = alloca ptr, align 8
  store ptr %0, ptr %2, align 8
  %3 = load ptr, ptr %2, align 8
  %4 = getelementptr inbounds %struct.edix, ptr %3, i32 0, i32 0
  store i32 0, ptr %4, align 8
  %5 = load ptr, ptr %2, align 8
  %6 = getelementptr inbounds %struct.edix, ptr %5, i32 0, i32 2
  call void @_ZL13gmx_snew_implIA3_fEvPKcS2_iRPT_m(ptr noundef @.str.188, ptr noundef @.str.156, i32 noundef 569, ptr noundef nonnull align 8 dereferenceable(8) %6, i64 noundef 1)
  %7 = load ptr, ptr %2, align 8
  %8 = getelementptr inbounds %struct.edix, ptr %7, i32 0, i32 1
  call void @_ZL13gmx_snew_implIiEvPKcS1_iRPT_m(ptr noundef @.str.189, ptr noundef @.str.156, i32 noundef 570, ptr noundef nonnull align 8 dereferenceable(8) %8, i64 noundef 1)
  ret void
}

; Function Attrs: mustprogress uwtable
define internal noundef i32 @_ZL13read_conffilePKcPPA3_f(ptr noundef %0, ptr noundef %1) #0 personality ptr @__gxx_personality_v0 {
  %3 = alloca ptr, align 8
  %4 = alloca ptr, align 8
  %5 = alloca %struct.t_topology, align 8
  %6 = alloca [3 x [3 x float]], align 16
  %7 = alloca %"class.std::filesystem::__cxx11::path", align 8
  %8 = alloca ptr, align 8
  %9 = alloca i32, align 4
  store ptr %0, ptr %3, align 8
  store ptr %1, ptr %4, align 8
  %10 = load ptr, ptr %3, align 8
  %11 = call i32 (ptr, ...) @printf(ptr noundef @.str.186, ptr noundef %10)
  call void @_ZNSt10filesystem7__cxx114pathC2IPKcS1_EERKT_NS1_6formatE(ptr noundef nonnull align 8 dereferenceable(40) %7, ptr noundef nonnull align 8 dereferenceable(8) %3, i8 noundef zeroext 2)
  %12 = load ptr, ptr %4, align 8
  %13 = getelementptr inbounds [3 x [3 x float]], ptr %6, i64 0, i64 0
  %14 = invoke noundef zeroext i1 @_Z13read_tps_confRKNSt10filesystem7__cxx114pathEP10t_topologyP7PbcTypePPA3_fSA_S9_b(ptr noundef nonnull align 8 dereferenceable(40) %7, ptr noundef %5, ptr noundef null, ptr noundef %12, ptr noundef null, ptr noundef %13, i1 noundef zeroext false)
          to label %15 unwind label %23

15:                                               ; preds = %2
  call void @_ZNSt10filesystem7__cxx114pathD2Ev(ptr noundef nonnull align 8 dereferenceable(40) %7) #10
  %16 = getelementptr inbounds %struct.t_topology, ptr %5, i32 0, i32 2
  %17 = getelementptr inbounds %struct.t_atoms, ptr %16, i32 0, i32 0
  %18 = load i32, ptr %17, align 8
  %19 = call i32 (ptr, ...) @printf(ptr noundef @.str.187, i32 noundef %18)
  %20 = getelementptr inbounds %struct.t_topology, ptr %5, i32 0, i32 2
  %21 = getelementptr inbounds %struct.t_atoms, ptr %20, i32 0, i32 0
  %22 = load i32, ptr %21, align 8
  ret i32 %22

23:                                               ; preds = %2
  %24 = landingpad { ptr, i32 }
          cleanup
  %25 = extractvalue { ptr, i32 } %24, 0
  store ptr %25, ptr %8, align 8
  %26 = extractvalue { ptr, i32 } %24, 1
  store i32 %26, ptr %9, align 4
  call void @_ZNSt10filesystem7__cxx114pathD2Ev(ptr noundef nonnull align 8 dereferenceable(40) %7) #10
  br label %27

27:                                               ; preds = %23
  %28 = load ptr, ptr %8, align 8
  %29 = load i32, ptr %9, align 4
  %30 = insertvalue { ptr, i32 } poison, ptr %28, 0
  %31 = insertvalue { ptr, i32 } %30, i32 %29, 1
  resume { ptr, i32 } %31
}

; Function Attrs: mustprogress uwtable
define internal void @_ZL13get_structurePK7t_atomsPKcS3_P4edixiPiiS6_(ptr noundef %0, ptr noundef %1, ptr noundef %2, ptr noundef %3, i32 noundef %4, ptr noundef %5, i32 noundef %6, ptr noundef %7) #0 personality ptr @__gxx_personality_v0 {
  %9 = alloca ptr, align 8
  %10 = alloca ptr, align 8
  %11 = alloca ptr, align 8
  %12 = alloca ptr, align 8
  %13 = alloca i32, align 4
  %14 = alloca ptr, align 8
  %15 = alloca i32, align 4
  %16 = alloca ptr, align 8
  %17 = alloca ptr, align 8
  %18 = alloca i32, align 4
  %19 = alloca i32, align 4
  %20 = alloca ptr, align 8
  %21 = alloca ptr, align 8
  %22 = alloca %"class.std::filesystem::__cxx11::path", align 8
  %23 = alloca ptr, align 8
  %24 = alloca i32, align 4
  store ptr %0, ptr %9, align 8
  store ptr %1, ptr %10, align 8
  store ptr %2, ptr %11, align 8
  store ptr %3, ptr %12, align 8
  store i32 %4, ptr %13, align 4
  store ptr %5, ptr %14, align 8
  store i32 %6, ptr %15, align 4
  store ptr %7, ptr %16, align 8
  %25 = load ptr, ptr %11, align 8
  %26 = call noundef i32 @_ZL13read_conffilePKcPPA3_f(ptr noundef %25, ptr noundef %20)
  store i32 %26, ptr %19, align 4
  %27 = load i32, ptr %19, align 4
  %28 = load ptr, ptr %11, align 8
  %29 = call i32 (ptr, ...) @printf(ptr noundef @.str.184, i32 noundef %27, ptr noundef %28)
  %30 = load ptr, ptr %9, align 8
  %31 = load ptr, ptr %10, align 8
  call void @_Z9get_indexPK7t_atomsPKciPiPS4_PPc(ptr noundef %30, ptr noundef %31, i32 noundef 1, ptr noundef %18, ptr noundef %17, ptr noundef %21)
  %32 = load i32, ptr %18, align 4
  %33 = load i32, ptr %19, align 4
  %34 = icmp ne i32 %32, %33
  br i1 %34, label %35, label %43

35:                                               ; preds = %8
  call void @_ZNSt10filesystem7__cxx114pathC2IA129_cS1_EERKT_NS1_6formatE(ptr noundef nonnull align 8 dereferenceable(40) %22, ptr noundef nonnull align 1 dereferenceable(129) @.str.156, i8 noundef zeroext 2)
  %36 = load i32, ptr %18, align 4
  %37 = load i32, ptr %19, align 4
  invoke void (i32, ptr, i32, ptr, ...) @_Z9gmx_fataliRKNSt10filesystem7__cxx114pathEiPKcz(i32 noundef 0, ptr noundef nonnull align 8 dereferenceable(40) %22, i32 noundef 620, ptr noundef @.str.185, i32 noundef %36, i32 noundef %37) #11
          to label %38 unwind label %39

38:                                               ; preds = %35
  unreachable

39:                                               ; preds = %35
  %40 = landingpad { ptr, i32 }
          cleanup
  %41 = extractvalue { ptr, i32 } %40, 0
  store ptr %41, ptr %23, align 8
  %42 = extractvalue { ptr, i32 } %40, 1
  store i32 %42, ptr %24, align 4
  call void @_ZNSt10filesystem7__cxx114pathD2Ev(ptr noundef nonnull align 8 dereferenceable(40) %22) #10
  br label %64

43:                                               ; preds = %8
  %44 = load ptr, ptr %12, align 8
  call void @_ZL8init_edxP4edix(ptr noundef %44)
  %45 = load ptr, ptr %12, align 8
  %46 = load i32, ptr %13, align 4
  %47 = load ptr, ptr %14, align 8
  %48 = load i32, ptr %18, align 4
  %49 = load ptr, ptr %17, align 8
  %50 = load ptr, ptr %20, align 8
  %51 = load ptr, ptr %11, align 8
  call void @_ZL10filter2edxP4edixiPiiPKiPA3_KfPKc(ptr noundef %45, i32 noundef %46, ptr noundef %47, i32 noundef %48, ptr noundef %49, ptr noundef %50, ptr noundef %51)
  %52 = load ptr, ptr %14, align 8
  %53 = load ptr, ptr %16, align 8
  %54 = icmp ne ptr %52, %53
  br i1 %54, label %55, label %63

55:                                               ; preds = %43
  %56 = load ptr, ptr %12, align 8
  %57 = load i32, ptr %15, align 4
  %58 = load ptr, ptr %16, align 8
  %59 = load i32, ptr %18, align 4
  %60 = load ptr, ptr %17, align 8
  %61 = load ptr, ptr %20, align 8
  %62 = load ptr, ptr %11, align 8
  call void @_ZL10filter2edxP4edixiPiiPKiPA3_KfPKc(ptr noundef %56, i32 noundef %57, ptr noundef %58, i32 noundef %59, ptr noundef %60, ptr noundef %61, ptr noundef %62)
  br label %63

63:                                               ; preds = %55, %43
  ret void

64:                                               ; preds = %39
  %65 = load ptr, ptr %23, align 8
  %66 = load i32, ptr %24, align 4
  %67 = insertvalue { ptr, i32 } poison, ptr %65, 0
  %68 = insertvalue { ptr, i32 } %67, i32 %66, 1
  resume { ptr, i32 } %68
}