; Function Attrs: mustprogress uwtable
define internal fastcc void @_ZL13get_structurePK7t_atomsPKcS3_P4edixiPiiS6_(ptr noundef %0, ptr noundef %1, ptr noundef %2, ptr nocapture noundef %3, i32 noundef %4, ptr noundef readonly %5, i32 noundef %6, ptr noundef readonly %7) unnamed_addr #0 personality ptr @__gxx_personality_v0 {
  %9 = alloca ptr, align 8
  %10 = alloca %struct.t_topology, align 8
  %11 = alloca [3 x [3 x float]], align 16
  %12 = alloca %"class.std::filesystem::__cxx11::path", align 8
  %13 = alloca ptr, align 8
  %14 = alloca i32, align 4
  %15 = alloca ptr, align 8
  %16 = alloca ptr, align 8
  %17 = alloca %"class.std::filesystem::__cxx11::path", align 8
  call void @llvm.lifetime.start.p0(i64 8, ptr nonnull %9)
  call void @llvm.lifetime.start.p0(i64 2440, ptr nonnull %10)
  call void @llvm.lifetime.start.p0(i64 36, ptr nonnull %11)
  call void @llvm.lifetime.start.p0(i64 40, ptr nonnull %12)
  store ptr %2, ptr %9, align 8
  %18 = tail call i32 (ptr, ...) @printf(ptr noundef nonnull dereferenceable(1) @.str.186, ptr noundef %2)
  call void @_ZNSt10filesystem7__cxx114pathC2IPKcS1_EERKT_NS1_6formatE(ptr noundef nonnull align 8 dereferenceable(40) %12, ptr noundef nonnull align 8 dereferenceable(8) %9, i8 noundef zeroext 2)
  %19 = invoke noundef zeroext i1 @_Z13read_tps_confRKNSt10filesystem7__cxx114pathEP10t_topologyP7PbcTypePPA3_fSA_S9_b(ptr noundef nonnull align 8 dereferenceable(40) %12, ptr noundef nonnull %10, ptr noundef null, ptr noundef nonnull %15, ptr noundef null, ptr noundef nonnull %11, i1 noundef zeroext false)
          to label %20 unwind label %24

20:                                               ; preds = %8
  %21 = getelementptr inbounds i8, ptr %12, i64 32
  %22 = load ptr, ptr %21, align 8
  %.not.i.i.i.i = icmp eq ptr %22, null
  br i1 %.not.i.i.i.i, label %_ZL13read_conffilePKcPPA3_f.exit, label %23

23:                                               ; preds = %20
  call void @_ZNKSt10filesystem7__cxx114path5_List13_Impl_deleterclEPNS2_5_ImplE(ptr noundef nonnull align 1 dereferenceable(1) %21, ptr noundef nonnull %22) #15
  br label %_ZL13read_conffilePKcPPA3_f.exit

common.resume:                                    ; preds = %35, %24
  %.sink = phi ptr [ %17, %35 ], [ %12, %24 ]
  %common.resume.op = phi { ptr, i32 } [ %36, %35 ], [ %25, %24 ]
  call void @_ZNSt10filesystem7__cxx114pathD2Ev(ptr noundef nonnull align 8 dereferenceable(40) %.sink) #15
  resume { ptr, i32 } %common.resume.op

24:                                               ; preds = %8
  %25 = landingpad { ptr, i32 }
          cleanup
  br label %common.resume

_ZL13read_conffilePKcPPA3_f.exit:                 ; preds = %20, %23
  store ptr null, ptr %21, align 8
  call void @_ZNSt7__cxx1112basic_stringIcSt11char_traitsIcESaIcEED1Ev(ptr noundef nonnull align 8 dereferenceable(32) %12) #15
  %26 = getelementptr inbounds i8, ptr %10, i64 2320
  %27 = load i32, ptr %26, align 8
  %28 = call i32 (ptr, ...) @printf(ptr noundef nonnull dereferenceable(1) @.str.187, i32 noundef %27)
  %29 = load i32, ptr %26, align 8
  call void @llvm.lifetime.end.p0(i64 8, ptr nonnull %9)
  call void @llvm.lifetime.end.p0(i64 2440, ptr nonnull %10)
  call void @llvm.lifetime.end.p0(i64 36, ptr nonnull %11)
  call void @llvm.lifetime.end.p0(i64 40, ptr nonnull %12)
  %30 = call i32 (ptr, ...) @printf(ptr noundef nonnull dereferenceable(1) @.str.184, i32 noundef %29, ptr noundef %2)
  call void @_Z9get_indexPK7t_atomsPKciPiPS4_PPc(ptr noundef %0, ptr noundef %1, i32 noundef 1, ptr noundef nonnull %14, ptr noundef nonnull %13, ptr noundef nonnull %16)
  %31 = load i32, ptr %14, align 4
  %.not = icmp eq i32 %31, %29
  br i1 %.not, label %37, label %32

32:                                               ; preds = %_ZL13read_conffilePKcPPA3_f.exit
  call void @_ZNSt10filesystem7__cxx114pathC2IA129_cS1_EERKT_NS1_6formatE(ptr noundef nonnull align 8 dereferenceable(40) %17, ptr noundef nonnull align 1 dereferenceable(129) @.str.156, i8 noundef zeroext 2)
  %33 = load i32, ptr %14, align 4
  invoke void (i32, ptr, i32, ptr, ...) @_Z9gmx_fataliRKNSt10filesystem7__cxx114pathEiPKcz(i32 noundef 0, ptr noundef nonnull align 8 dereferenceable(40) %17, i32 noundef 620, ptr noundef nonnull @.str.185, i32 noundef %33, i32 noundef %29) #16
          to label %34 unwind label %35

34:                                               ; preds = %32
  unreachable

35:                                               ; preds = %32
  %36 = landingpad { ptr, i32 }
          cleanup
  br label %common.resume

37:                                               ; preds = %_ZL13read_conffilePKcPPA3_f.exit
  store i32 0, ptr %3, align 8
  %38 = getelementptr inbounds i8, ptr %3, i64 16
  %39 = call noundef ptr @_Z11save_callocPKcS0_imm(ptr noundef nonnull @.str.188, ptr noundef nonnull @.str.156, i32 noundef 569, i64 noundef 1, i64 noundef 12)
  store ptr %39, ptr %38, align 8
  %40 = getelementptr inbounds i8, ptr %3, i64 8
  %41 = call noundef ptr @_Z11save_callocPKcS0_imm(ptr noundef nonnull @.str.189, ptr noundef nonnull @.str.156, i32 noundef 570, i64 noundef 1, i64 noundef 4)
  store ptr %41, ptr %40, align 8
  %42 = load i32, ptr %14, align 4
  %43 = load ptr, ptr %13, align 8
  %44 = load ptr, ptr %15, align 8
  call fastcc void @_ZL10filter2edxP4edixiPiiPKiPA3_KfPKc(ptr noundef nonnull %3, i32 noundef %4, ptr noundef %5, i32 noundef %42, ptr noundef %43, ptr noundef %44, ptr noundef %2)
  %.not20 = icmp eq ptr %5, %7
  br i1 %.not20, label %49, label %45

45:                                               ; preds = %37
  %46 = load i32, ptr %14, align 4
  %47 = load ptr, ptr %13, align 8
  %48 = load ptr, ptr %15, align 8
  call fastcc void @_ZL10filter2edxP4edixiPiiPKiPA3_KfPKc(ptr noundef nonnull %3, i32 noundef %6, ptr noundef %7, i32 noundef %46, ptr noundef %47, ptr noundef %48, ptr noundef %2)
  br label %49

49:                                               ; preds = %45, %37
  ret void
}